target datalayout = "e-m:e-p270:32:32-p271:32:32-p272:64:64-i64:64-i128:128-f80:128-n8:16:32:64-S128"
target triple = "x86_64-pc-linux-gnu"

%struct.AVRational = type { i32, i32 }
%struct.AVPacket = type { ptr, i64, i64, ptr, i32, i32, i32, ptr, i32, i64, i64, ptr, ptr, %struct.AVRational }
%struct.AVPacketSideData = type { ptr, i64, i32 }

; Function Attrs: nounwind uwtable
define i32 @av_packet_add_side_data(ptr noundef %0, i32 noundef %1, ptr noundef %2, i64 noundef %3) #0 {
  %5 = alloca i32, align 4
  %6 = alloca ptr, align 8
  %7 = alloca i32, align 4
  %8 = alloca ptr, align 8
  %9 = alloca i64, align 8
  %10 = alloca ptr, align 8
  %11 = alloca i32, align 4
  %12 = alloca i32, align 4
  %13 = alloca ptr, align 8
  %14 = alloca i32, align 4
  store ptr %0, ptr %6, align 8, !tbaa !4
  store i32 %1, ptr %7, align 4, !tbaa !28
  store ptr %2, ptr %8, align 8, !tbaa !42
  store i64 %3, ptr %9, align 8, !tbaa !43
  call void @llvm.lifetime.start.p0(i64 8, ptr %10) #9
  call void @llvm.lifetime.start.p0(i64 4, ptr %11) #9
  call void @llvm.lifetime.start.p0(i64 4, ptr %12) #9
  %15 = load ptr, ptr %6, align 8, !tbaa !4
  %16 = getelementptr inbounds nuw %struct.AVPacket, ptr %15, i32 0, i32 8
  %17 = load i32, ptr %16, align 8, !tbaa !24
  store i32 %17, ptr %12, align 4, !tbaa !28
  store i32 0, ptr %11, align 4, !tbaa !28
  br label %18

18:                                               ; preds = %48, %4
  %19 = load i32, ptr %11, align 4, !tbaa !28
  %20 = load i32, ptr %12, align 4, !tbaa !28
  %21 = icmp slt i32 %19, %20
  br i1 %21, label %22, label %51

22:                                               ; preds = %18
  call void @llvm.lifetime.start.p0(i64 8, ptr %13) #9
  %23 = load ptr, ptr %6, align 8, !tbaa !4
  %24 = getelementptr inbounds nuw %struct.AVPacket, ptr %23, i32 0, i32 7
  %25 = load ptr, ptr %24, align 8, !tbaa !23
  %26 = load i32, ptr %11, align 4, !tbaa !28
  %27 = sext i32 %26 to i64
  %28 = getelementptr inbounds %struct.AVPacketSideData, ptr %25, i64 %27
  store ptr %28, ptr %13, align 8, !tbaa !47
  %29 = load ptr, ptr %13, align 8, !tbaa !47
  %30 = getelementptr inbounds nuw %struct.AVPacketSideData, ptr %29, i32 0, i32 2
  %31 = load i32, ptr %30, align 8, !tbaa !48
  %32 = load i32, ptr %7, align 4, !tbaa !28
  %33 = icmp eq i32 %31, %32
  br i1 %33, label %34, label %44

34:                                               ; preds = %22
  %35 = load ptr, ptr %13, align 8, !tbaa !47
  %36 = getelementptr inbounds nuw %struct.AVPacketSideData, ptr %35, i32 0, i32 0
  %37 = load ptr, ptr %36, align 8, !tbaa !50
  call void @av_free(ptr noundef %37)
  %38 = load ptr, ptr %8, align 8, !tbaa !42
  %39 = load ptr, ptr %13, align 8, !tbaa !47
  %40 = getelementptr inbounds nuw %struct.AVPacketSideData, ptr %39, i32 0, i32 0
  store ptr %38, ptr %40, align 8, !tbaa !50
  %41 = load i64, ptr %9, align 8, !tbaa !43
  %42 = load ptr, ptr %13, align 8, !tbaa !47
  %43 = getelementptr inbounds nuw %struct.AVPacketSideData, ptr %42, i32 0, i32 1
  store i64 %41, ptr %43, align 8, !tbaa !51
  store i32 0, ptr %5, align 4
  store i32 1, ptr %14, align 4
  br label %45

44:                                               ; preds = %22
  store i32 0, ptr %14, align 4
  br label %45

45:                                               ; preds = %44, %34
  call void @llvm.lifetime.end.p0(i64 8, ptr %13) #9
  %46 = load i32, ptr %14, align 4
  switch i32 %46, label %100 [
    i32 0, label %47
  ]

47:                                               ; preds = %45
  br label %48

48:                                               ; preds = %47
  %49 = load i32, ptr %11, align 4, !tbaa !28
  %50 = add nsw i32 %49, 1
  store i32 %50, ptr %11, align 4, !tbaa !28
  br label %18, !llvm.loop !52

51:                                               ; preds = %18
  %52 = load i32, ptr %12, align 4, !tbaa !28
  %53 = add i32 %52, 1
  %54 = icmp ugt i32 %53, 38
  br i1 %54, label %55, label %56

55:                                               ; preds = %51
  store i32 -34, ptr %5, align 4
  store i32 1, ptr %14, align 4
  br label %100

56:                                               ; preds = %51
  %57 = load ptr, ptr %6, align 8, !tbaa !4
  %58 = getelementptr inbounds nuw %struct.AVPacket, ptr %57, i32 0, i32 7
  %59 = load ptr, ptr %58, align 8, !tbaa !23
  %60 = load i32, ptr %12, align 4, !tbaa !28
  %61 = add nsw i32 %60, 1
  %62 = sext i32 %61 to i64
  %63 = mul i64 %62, 24
  %64 = call ptr @av_realloc(ptr noundef %59, i64 noundef %63)
  store ptr %64, ptr %10, align 8, !tbaa !47
  %65 = load ptr, ptr %10, align 8, !tbaa !47
  %66 = icmp ne ptr %65, null
  br i1 %66, label %68, label %67

67:                                               ; preds = %56
  store i32 -12, ptr %5, align 4
  store i32 1, ptr %14, align 4
  br label %100

68:                                               ; preds = %56
  %69 = load ptr, ptr %10, align 8, !tbaa !47
  %70 = load ptr, ptr %6, align 8, !tbaa !4
  %71 = getelementptr inbounds nuw %struct.AVPacket, ptr %70, i32 0, i32 7
  store ptr %69, ptr %71, align 8, !tbaa !23
  %72 = load ptr, ptr %8, align 8, !tbaa !42
  %73 = load ptr, ptr %6, align 8, !tbaa !4
  %74 = getelementptr inbounds nuw %struct.AVPacket, ptr %73, i32 0, i32 7
  %75 = load ptr, ptr %74, align 8, !tbaa !23
  %76 = load i32, ptr %12, align 4, !tbaa !28
  %77 = sext i32 %76 to i64
  %78 = getelementptr inbounds %struct.AVPacketSideData, ptr %75, i64 %77
  %79 = getelementptr inbounds nuw %struct.AVPacketSideData, ptr %78, i32 0, i32 0
  store ptr %72, ptr %79, align 8, !tbaa !50
  %80 = load i64, ptr %9, align 8, !tbaa !43
  %81 = load ptr, ptr %6, align 8, !tbaa !4
  %82 = getelementptr inbounds nuw %struct.AVPacket, ptr %81, i32 0, i32 7
  %83 = load ptr, ptr %82, align 8, !tbaa !23
  %84 = load i32, ptr %12, align 4, !tbaa !28
  %85 = sext i32 %84 to i64
  %86 = getelementptr inbounds %struct.AVPacketSideData, ptr %83, i64 %85
  %87 = getelementptr inbounds nuw %struct.AVPacketSideData, ptr %86, i32 0, i32 1
  store i64 %80, ptr %87, align 8, !tbaa !51
  %88 = load i32, ptr %7, align 4, !tbaa !28
  %89 = load ptr, ptr %6, align 8, !tbaa !4
  %90 = getelementptr inbounds nuw %struct.AVPacket, ptr %89, i32 0, i32 7
  %91 = load ptr, ptr %90, align 8, !tbaa !23
  %92 = load i32, ptr %12, align 4, !tbaa !28
  %93 = sext i32 %92 to i64
  %94 = getelementptr inbounds %struct.AVPacketSideData, ptr %91, i64 %93
  %95 = getelementptr inbounds nuw %struct.AVPacketSideData, ptr %94, i32 0, i32 2
  store i32 %88, ptr %95, align 8, !tbaa !48
  %96 = load ptr, ptr %6, align 8, !tbaa !4
  %97 = getelementptr inbounds nuw %struct.AVPacket, ptr %96, i32 0, i32 8
  %98 = load i32, ptr %97, align 8, !tbaa !24
  %99 = add nsw i32 %98, 1
  store i32 %99, ptr %97, align 8, !tbaa !24
  store i32 0, ptr %5, align 4
  store i32 1, ptr %14, align 4
  br label %100

100:                                              ; preds = %68, %67, %55, %45
  call void @llvm.lifetime.end.p0(i64 4, ptr %12) #9
  call void @llvm.lifetime.end.p0(i64 4, ptr %11) #9
  call void @llvm.lifetime.end.p0(i64 8, ptr %10) #9
  %101 = load i32, ptr %5, align 4
  ret i32 %101
}