; Function Attrs: nounwind uwtable
define range(i32 -34, 1) i32 @av_packet_add_side_data(ptr noundef captures(none) %0, i32 noundef %1, ptr noundef %2, i64 noundef %3) local_unnamed_addr #3 {
  %5 = getelementptr inbounds nuw i8, ptr %0, i64 56
  %6 = load i32, ptr %5, align 8, !tbaa !22
  %7 = icmp sgt i32 %6, 0
  br i1 %7, label %.critedge.lr.ph, label %._crit_edge

.critedge.lr.ph:                                  ; preds = %4
  %8 = getelementptr inbounds nuw i8, ptr %0, i64 48
  %9 = load ptr, ptr %8, align 8, !tbaa !21
  %wide.trip.count = zext nneg i32 %6 to i64
  br label %.critedge

10:                                               ; preds = %.critedge
  %indvars.iv.next = add nuw nsw i64 %indvars.iv, 1
  %exitcond.not = icmp eq i64 %indvars.iv.next, %wide.trip.count
  br i1 %exitcond.not, label %._crit_edge, label %.critedge, !llvm.loop !34

.critedge:                                        ; preds = %.critedge.lr.ph, %10
  %indvars.iv = phi i64 [ 0, %.critedge.lr.ph ], [ %indvars.iv.next, %10 ]
  %11 = getelementptr inbounds nuw %struct.AVPacketSideData, ptr %9, i64 %indvars.iv
  %12 = getelementptr inbounds nuw i8, ptr %11, i64 16
  %13 = load i32, ptr %12, align 8, !tbaa !35
  %.not35 = icmp eq i32 %13, %1
  br i1 %.not35, label %14, label %10

14:                                               ; preds = %.critedge
  %15 = load ptr, ptr %11, align 8, !tbaa !37
  tail call void @av_free(ptr noundef %15) #16
  store ptr %2, ptr %11, align 8, !tbaa !37
  %16 = getelementptr inbounds nuw i8, ptr %11, i64 8
  store i64 %3, ptr %16, align 8, !tbaa !38
  br label %31

._crit_edge:                                      ; preds = %10, %4
  %17 = add i32 %6, 1
  %18 = icmp ugt i32 %17, 38
  br i1 %18, label %31, label %19

19:                                               ; preds = %._crit_edge
  %20 = getelementptr inbounds nuw i8, ptr %0, i64 48
  %21 = load ptr, ptr %20, align 8, !tbaa !21
  %narrow = mul nuw nsw i32 %17, 24
  %22 = zext nneg i32 %narrow to i64
  %23 = tail call ptr @av_realloc(ptr noundef %21, i64 noundef %22) #16
  %.not = icmp eq ptr %23, null
  br i1 %.not, label %31, label %24

24:                                               ; preds = %19
  store ptr %23, ptr %20, align 8, !tbaa !21
  %25 = sext i32 %6 to i64
  %26 = getelementptr inbounds %struct.AVPacketSideData, ptr %23, i64 %25
  store ptr %2, ptr %26, align 8, !tbaa !37
  %27 = getelementptr inbounds %struct.AVPacketSideData, ptr %23, i64 %25, i32 1
  store i64 %3, ptr %27, align 8, !tbaa !38
  %28 = getelementptr inbounds %struct.AVPacketSideData, ptr %23, i64 %25, i32 2
  store i32 %1, ptr %28, align 8, !tbaa !35
  %29 = load i32, ptr %5, align 8, !tbaa !22
  %30 = add nsw i32 %29, 1
  store i32 %30, ptr %5, align 8, !tbaa !22
  br label %31

31:                                               ; preds = %14, %19, %._crit_edge, %24
  %.2 = phi i32 [ 0, %14 ], [ 0, %24 ], [ -34, %._crit_edge ], [ -12, %19 ]
  ret i32 %.2
}